; Function Attrs: nounwind uwtable
define dso_local i32 @reftable_iterator_next_ref(ptr noundef readonly captures(none) %0, ptr noundef captures(none) %1) local_unnamed_addr #0 {
  %3 = alloca %struct.reftable_record, align 8
  call void @llvm.lifetime.start.p0(i64 152, ptr nonnull %3) #10
  store i8 114, ptr %3, align 8, !tbaa !37
  %4 = getelementptr inbounds nuw i8, ptr %3, i64 1
  call void @llvm.memset.p0.i64(ptr noundef nonnull align 1 dereferenceable(7) %4, i8 0, i64 7, i1 false)
  %5 = getelementptr inbounds nuw i8, ptr %3, i64 8
  call void @llvm.memcpy.p0.p0.i64(ptr noundef nonnull align 8 dereferenceable(96) %5, ptr noundef nonnull align 8 dereferenceable(96) %1, i64 96, i1 false), !tbaa.struct !41
  %6 = getelementptr inbounds nuw i8, ptr %3, i64 104
  call void @llvm.memset.p0.i64(ptr noundef nonnull align 8 dereferenceable(48) %6, i8 0, i64 48, i1 false)
  %7 = load ptr, ptr %0, align 8, !tbaa !4
  %8 = getelementptr inbounds nuw i8, ptr %7, i64 8
  %9 = load ptr, ptr %8, align 8, !tbaa !13
  %10 = getelementptr inbounds nuw i8, ptr %0, i64 8
  %11 = load ptr, ptr %10, align 8, !tbaa !12
  %12 = call i32 %9(ptr noundef %11, ptr noundef nonnull %3) #10
  call void @llvm.memcpy.p0.p0.i64(ptr noundef nonnull align 8 dereferenceable(96) %1, ptr noundef nonnull align 8 dereferenceable(96) %5, i64 96, i1 false), !tbaa.struct !41
  call void @llvm.lifetime.end.p0(i64 152, ptr nonnull %3) #10
  ret i32 %12
}